Archive member included to satisfy reference by file (symbol)

c:/program files/microchip/xc8/v2.31/avr/bin/../lib/gcc/avr/5.4.0/../../../../avr/lib/avrxmega3\libprintf_flt.a(vfprintf_flt.o)
                              (vfprintf)
c:/program files/microchip/xc8/v2.31/avr/bin/../lib/gcc/avr/5.4.0/../../../../avr/lib/avrxmega3\libm.a(divsf3.o)
                              build/free/debug/main.o (__divsf3)
c:/program files/microchip/xc8/v2.31/avr/bin/../lib/gcc/avr/5.4.0/../../../../avr/lib/avrxmega3\libm.a(divsf3x.o)
                              c:/program files/microchip/xc8/v2.31/avr/bin/../lib/gcc/avr/5.4.0/../../../../avr/lib/avrxmega3\libm.a(divsf3.o) (__divsf3x)
c:/program files/microchip/xc8/v2.31/avr/bin/../lib/gcc/avr/5.4.0/../../../../avr/lib/avrxmega3\libm.a(floatsisf.o)
                              build/free/debug/main.o (__floatunsisf)
c:/program files/microchip/xc8/v2.31/avr/bin/../lib/gcc/avr/5.4.0/../../../../avr/lib/avrxmega3\libm.a(fp_inf.o)
                              c:/program files/microchip/xc8/v2.31/avr/bin/../lib/gcc/avr/5.4.0/../../../../avr/lib/avrxmega3\libm.a(divsf3x.o) (__fp_inf)
c:/program files/microchip/xc8/v2.31/avr/bin/../lib/gcc/avr/5.4.0/../../../../avr/lib/avrxmega3\libm.a(fp_nan.o)
                              c:/program files/microchip/xc8/v2.31/avr/bin/../lib/gcc/avr/5.4.0/../../../../avr/lib/avrxmega3\libm.a(divsf3x.o) (__fp_nan)
c:/program files/microchip/xc8/v2.31/avr/bin/../lib/gcc/avr/5.4.0/../../../../avr/lib/avrxmega3\libm.a(fp_pscA.o)
                              c:/program files/microchip/xc8/v2.31/avr/bin/../lib/gcc/avr/5.4.0/../../../../avr/lib/avrxmega3\libm.a(divsf3x.o) (__fp_pscA)
c:/program files/microchip/xc8/v2.31/avr/bin/../lib/gcc/avr/5.4.0/../../../../avr/lib/avrxmega3\libm.a(fp_pscB.o)
                              c:/program files/microchip/xc8/v2.31/avr/bin/../lib/gcc/avr/5.4.0/../../../../avr/lib/avrxmega3\libm.a(divsf3x.o) (__fp_pscB)
c:/program files/microchip/xc8/v2.31/avr/bin/../lib/gcc/avr/5.4.0/../../../../avr/lib/avrxmega3\libm.a(fp_round.o)
                              c:/program files/microchip/xc8/v2.31/avr/bin/../lib/gcc/avr/5.4.0/../../../../avr/lib/avrxmega3\libm.a(divsf3.o) (__fp_round)
c:/program files/microchip/xc8/v2.31/avr/bin/../lib/gcc/avr/5.4.0/../../../../avr/lib/avrxmega3\libm.a(fp_split3.o)
                              c:/program files/microchip/xc8/v2.31/avr/bin/../lib/gcc/avr/5.4.0/../../../../avr/lib/avrxmega3\libm.a(divsf3x.o) (__fp_split3)
c:/program files/microchip/xc8/v2.31/avr/bin/../lib/gcc/avr/5.4.0/../../../../avr/lib/avrxmega3\libm.a(fp_zero.o)
                              c:/program files/microchip/xc8/v2.31/avr/bin/../lib/gcc/avr/5.4.0/../../../../avr/lib/avrxmega3\libm.a(divsf3x.o) (__fp_szero)
c:/program files/microchip/xc8/v2.31/avr/bin/../lib/gcc/avr/5.4.0/../../../../avr/lib/avrxmega3\libm.a(mulsf3.o)
                              build/free/debug/main.o (__mulsf3)
c:/program files/microchip/xc8/v2.31/avr/bin/../lib/gcc/avr/5.4.0/../../../../avr/lib/avrxmega3\libm.a(mulsf3x.o)
                              c:/program files/microchip/xc8/v2.31/avr/bin/../lib/gcc/avr/5.4.0/../../../../avr/lib/avrxmega3\libm.a(mulsf3.o) (__mulsf3x)
c:/program files/microchip/xc8/v2.31/avr/bin/../lib/gcc/avr/5.4.0/avrxmega3\libgcc.a(_exit.o)
                              C:/Users/C62081/.mchp_packs/Microchip/ATtiny_DFP/2.5.116/xc8/avr/lib/avrxmega3/crtattiny1627.o (exit)
c:/program files/microchip/xc8/v2.31/avr/bin/../lib/gcc/avr/5.4.0/avrxmega3\libgcc.a(_copy_data.o)
                              build/free/debug/mcc_generated_files/src/usart0.o (__do_copy_data)
c:/program files/microchip/xc8/v2.31/avr/bin/../lib/gcc/avr/5.4.0/avrxmega3\libgcc.a(_prologue.o)
                              c:/program files/microchip/xc8/v2.31/avr/bin/../lib/gcc/avr/5.4.0/../../../../avr/lib/avrxmega3\libprintf_flt.a(vfprintf_flt.o) (__prologue_saves__)
c:/program files/microchip/xc8/v2.31/avr/bin/../lib/gcc/avr/5.4.0/avrxmega3\libgcc.a(_epilogue.o)
                              c:/program files/microchip/xc8/v2.31/avr/bin/../lib/gcc/avr/5.4.0/../../../../avr/lib/avrxmega3\libprintf_flt.a(vfprintf_flt.o) (__epilogue_restores__)
c:/program files/microchip/xc8/v2.31/avr/bin/../lib/gcc/avr/5.4.0/../../../../avr/lib/avrxmega3\libc.a(ftoa_engine.o)
                              c:/program files/microchip/xc8/v2.31/avr/bin/../lib/gcc/avr/5.4.0/../../../../avr/lib/avrxmega3\libprintf_flt.a(vfprintf_flt.o) (__ftoa_engine)
c:/program files/microchip/xc8/v2.31/avr/bin/../lib/gcc/avr/5.4.0/../../../../avr/lib/avrxmega3\libc.a(strnlen_P.o)
                              c:/program files/microchip/xc8/v2.31/avr/bin/../lib/gcc/avr/5.4.0/../../../../avr/lib/avrxmega3\libprintf_flt.a(vfprintf_flt.o) (strnlen_P)
c:/program files/microchip/xc8/v2.31/avr/bin/../lib/gcc/avr/5.4.0/../../../../avr/lib/avrxmega3\libc.a(strnlen.o)
                              c:/program files/microchip/xc8/v2.31/avr/bin/../lib/gcc/avr/5.4.0/../../../../avr/lib/avrxmega3\libprintf_flt.a(vfprintf_flt.o) (strnlen)
c:/program files/microchip/xc8/v2.31/avr/bin/../lib/gcc/avr/5.4.0/../../../../avr/lib/avrxmega3\libc.a(fputc.o)
                              c:/program files/microchip/xc8/v2.31/avr/bin/../lib/gcc/avr/5.4.0/../../../../avr/lib/avrxmega3\libprintf_flt.a(vfprintf_flt.o) (fputc)
c:/program files/microchip/xc8/v2.31/avr/bin/../lib/gcc/avr/5.4.0/../../../../avr/lib/avrxmega3\libc.a(iob.o)
                              build/free/debug/mcc_generated_files/src/usart0.o (__iob)
c:/program files/microchip/xc8/v2.31/avr/bin/../lib/gcc/avr/5.4.0/../../../../avr/lib/avrxmega3\libc.a(printf.o)
                              build/free/debug/main.o (printf)
c:/program files/microchip/xc8/v2.31/avr/bin/../lib/gcc/avr/5.4.0/../../../../avr/lib/avrxmega3\libc.a(ultoa_invert.o)
                              c:/program files/microchip/xc8/v2.31/avr/bin/../lib/gcc/avr/5.4.0/../../../../avr/lib/avrxmega3\libprintf_flt.a(vfprintf_flt.o) (__ultoa_invert)

Allocating common symbols
Common symbol       size              file

__iob               0x6               c:/program files/microchip/xc8/v2.31/avr/bin/../lib/gcc/avr/5.4.0/../../../../avr/lib/avrxmega3\libc.a(iob.o)

Discarded input sections

 .data          0x0000000000000000        0x0 C:/Users/C62081/.mchp_packs/Microchip/ATtiny_DFP/2.5.116/xc8/avr/lib/avrxmega3/crtattiny1627.o
 .bss           0x0000000000000000        0x0 C:/Users/C62081/.mchp_packs/Microchip/ATtiny_DFP/2.5.116/xc8/avr/lib/avrxmega3/crtattiny1627.o
 .text          0x0000000000000000        0x0 c:/program files/microchip/xc8/v2.31/avr/bin/../lib/gcc/avr/5.4.0/../../../../avr/lib/avrxmega3\libprintf_flt.a(vfprintf_flt.o)
 .data          0x0000000000000000        0x0 c:/program files/microchip/xc8/v2.31/avr/bin/../lib/gcc/avr/5.4.0/../../../../avr/lib/avrxmega3\libprintf_flt.a(vfprintf_flt.o)
 .bss           0x0000000000000000        0x0 c:/program files/microchip/xc8/v2.31/avr/bin/../lib/gcc/avr/5.4.0/../../../../avr/lib/avrxmega3\libprintf_flt.a(vfprintf_flt.o)
 .text          0x0000000000000000        0x0 build/free/debug/mcc_generated_files/src/usart0.o
 .data          0x0000000000000000        0x0 build/free/debug/mcc_generated_files/src/usart0.o
 .bss           0x0000000000000000        0x0 build/free/debug/mcc_generated_files/src/usart0.o
 .text.USART0_Enable
                0x0000000000000000       0x22 build/free/debug/mcc_generated_files/src/usart0.o
 .text.USART0_EnableRx
                0x0000000000000000       0x22 build/free/debug/mcc_generated_files/src/usart0.o
 .text.USART0_EnableTx
                0x0000000000000000       0x22 build/free/debug/mcc_generated_files/src/usart0.o
 .text.USART0_Disable
                0x0000000000000000       0x22 build/free/debug/mcc_generated_files/src/usart0.o
 .text.USART0_GetData
                0x0000000000000000       0x16 build/free/debug/mcc_generated_files/src/usart0.o
 .text.USART0_IsTxReady
                0x0000000000000000       0x28 build/free/debug/mcc_generated_files/src/usart0.o
 .text.USART0_IsRxReady
                0x0000000000000000       0x28 build/free/debug/mcc_generated_files/src/usart0.o
 .text.USART0_IsTxDone
                0x0000000000000000       0x28 build/free/debug/mcc_generated_files/src/usart0.o
 .text.USART0_Read
                0x0000000000000000       0x24 build/free/debug/mcc_generated_files/src/usart0.o
 .text          0x0000000000000000        0x0 build/free/debug/mcc_generated_files/src/protected_io.o
 .data          0x0000000000000000        0x0 build/free/debug/mcc_generated_files/src/protected_io.o
 .bss           0x0000000000000000        0x0 build/free/debug/mcc_generated_files/src/protected_io.o
 .text          0x0000000000000000        0x0 build/free/debug/mcc_generated_files/src/adc0.o
 .data          0x0000000000000000        0x0 build/free/debug/mcc_generated_files/src/adc0.o
 .bss           0x0000000000000000        0x0 build/free/debug/mcc_generated_files/src/adc0.o
 .bss.ADC0_window_cb
                0x0000000000000000        0x2 build/free/debug/mcc_generated_files/src/adc0.o
 .text.ADC0_Enable
                0x0000000000000000       0x22 build/free/debug/mcc_generated_files/src/adc0.o
 .text.ADC0_Disable
                0x0000000000000000       0x22 build/free/debug/mcc_generated_files/src/adc0.o
 .text.ADC0_SetWindowHigh
                0x0000000000000000       0x30 build/free/debug/mcc_generated_files/src/adc0.o
 .text.ADC0_SetWindowLow
                0x0000000000000000       0x30 build/free/debug/mcc_generated_files/src/adc0.o
 .text.ADC0_SetWindowMode
                0x0000000000000000       0x20 build/free/debug/mcc_generated_files/src/adc0.o
 .text.ADC0_StartConversion
                0x0000000000000000       0x32 build/free/debug/mcc_generated_files/src/adc0.o
 .text.ADC0_StartDiffConversion
                0x0000000000000000       0x40 build/free/debug/mcc_generated_files/src/adc0.o
 .text.ADC0_StopConversion
                0x0000000000000000       0x22 build/free/debug/mcc_generated_files/src/adc0.o
 .text.ADC0_IsConversionDone
                0x0000000000000000       0x28 build/free/debug/mcc_generated_files/src/adc0.o
 .text.ADC0_GetConversionSample
                0x0000000000000000       0x18 build/free/debug/mcc_generated_files/src/adc0.o
 .text.ADC0_GetWindowResult
                0x0000000000000000       0x38 build/free/debug/mcc_generated_files/src/adc0.o
 .text.ADC0_GetConversion
                0x0000000000000000       0x76 build/free/debug/mcc_generated_files/src/adc0.o
 .text.ADC0_GetDiffConversion
                0x0000000000000000       0x96 build/free/debug/mcc_generated_files/src/adc0.o
 .text.ADC0_GetResolution
                0x0000000000000000       0x18 build/free/debug/mcc_generated_files/src/adc0.o
 .text.ADC0_RegisterWindowCallback
                0x0000000000000000       0x26 build/free/debug/mcc_generated_files/src/adc0.o
 .text.ADC0_PGA_enable
                0x0000000000000000       0x22 build/free/debug/mcc_generated_files/src/adc0.o
 .text.ADC0_PGA_disable
                0x0000000000000000       0x22 build/free/debug/mcc_generated_files/src/adc0.o
 .text.ADC0_PGA_Gain_Setting
                0x0000000000000000       0x2e build/free/debug/mcc_generated_files/src/adc0.o
 .text.ADC0_PGA_Bias_Select
                0x0000000000000000       0x2e build/free/debug/mcc_generated_files/src/adc0.o
 .text.ADC0_PGA_Sample_Duration
                0x0000000000000000       0x2e build/free/debug/mcc_generated_files/src/adc0.o
 .text          0x0000000000000000        0x0 build/free/debug/mcc_generated_files/src/cpuint.o
 .data          0x0000000000000000        0x0 build/free/debug/mcc_generated_files/src/cpuint.o
 .bss           0x0000000000000000        0x0 build/free/debug/mcc_generated_files/src/cpuint.o
 .text          0x0000000000000000        0x0 build/free/debug/mcc_generated_files/src/evsys.o
 .data          0x0000000000000000        0x0 build/free/debug/mcc_generated_files/src/evsys.o
 .bss           0x0000000000000000        0x0 build/free/debug/mcc_generated_files/src/evsys.o
 .text          0x0000000000000000        0x0 build/free/debug/mcc_generated_files/src/pin_manager.o
 .data          0x0000000000000000        0x0 build/free/debug/mcc_generated_files/src/pin_manager.o
 .bss           0x0000000000000000        0x0 build/free/debug/mcc_generated_files/src/pin_manager.o
 .text          0x0000000000000000        0x0 build/free/debug/mcc_generated_files/src/rtc.o
 .data          0x0000000000000000        0x0 build/free/debug/mcc_generated_files/src/rtc.o
 .bss           0x0000000000000000        0x0 build/free/debug/mcc_generated_files/src/rtc.o
 .text.RTC_SetOVFIsrCallback
                0x0000000000000000       0x26 build/free/debug/mcc_generated_files/src/rtc.o
 .text.RTC_SetCMPIsrCallback
                0x0000000000000000       0x26 build/free/debug/mcc_generated_files/src/rtc.o
 .text.RTC_SetPITIsrCallback
                0x0000000000000000       0x26 build/free/debug/mcc_generated_files/src/rtc.o
 .text.RTC_WriteCounter
                0x0000000000000000       0x3e build/free/debug/mcc_generated_files/src/rtc.o
 .text.RTC_ReadCounter
                0x0000000000000000       0x18 build/free/debug/mcc_generated_files/src/rtc.o
 .text.RTC_WritePeriod
                0x0000000000000000       0x3e build/free/debug/mcc_generated_files/src/rtc.o
 .text.RTC_ReadPeriod
                0x0000000000000000       0x18 build/free/debug/mcc_generated_files/src/rtc.o
 .text.RTC_EnableCMPInterrupt
                0x0000000000000000       0x22 build/free/debug/mcc_generated_files/src/rtc.o
 .text.RTC_DisableCMPInterrupt
                0x0000000000000000       0x22 build/free/debug/mcc_generated_files/src/rtc.o
 .text.RTC_EnableOVFInterrupt
                0x0000000000000000       0x22 build/free/debug/mcc_generated_files/src/rtc.o
 .text.RTC_DisableOVFInterrupt
                0x0000000000000000       0x22 build/free/debug/mcc_generated_files/src/rtc.o
 .text.RTC_EnablePITInterrupt
                0x0000000000000000       0x22 build/free/debug/mcc_generated_files/src/rtc.o
 .text.RTC_DisablePITInterrupt
                0x0000000000000000       0x22 build/free/debug/mcc_generated_files/src/rtc.o
 .text.RTC_ClearOVFInterruptFlag
                0x0000000000000000       0x22 build/free/debug/mcc_generated_files/src/rtc.o
 .text.RTC_IsOVFInterruptEnabled
                0x0000000000000000       0x2a build/free/debug/mcc_generated_files/src/rtc.o
 .text          0x0000000000000000        0x0 build/free/debug/mcc_generated_files/src/vref.o
 .data          0x0000000000000000        0x0 build/free/debug/mcc_generated_files/src/vref.o
 .bss           0x0000000000000000        0x0 build/free/debug/mcc_generated_files/src/vref.o
 .text          0x0000000000000000        0x0 build/free/debug/mcc_generated_files/device_config.o
 .data          0x0000000000000000        0x0 build/free/debug/mcc_generated_files/device_config.o
 .bss           0x0000000000000000        0x0 build/free/debug/mcc_generated_files/device_config.o
 .text          0x0000000000000000        0x0 build/free/debug/mcc_generated_files/mcc.o
 .data          0x0000000000000000        0x0 build/free/debug/mcc_generated_files/mcc.o
 .bss           0x0000000000000000        0x0 build/free/debug/mcc_generated_files/mcc.o
 .text.WDT_Initialize
                0x0000000000000000       0x10 build/free/debug/mcc_generated_files/mcc.o
 .text          0x0000000000000000        0x0 build/free/debug/main.o
 .data          0x0000000000000000        0x0 build/free/debug/main.o
 .bss           0x0000000000000000        0x0 build/free/debug/main.o
 .text          0x0000000000000000        0x0 c:/program files/microchip/xc8/v2.31/avr/bin/../lib/gcc/avr/5.4.0/../../../../avr/lib/avrxmega3\libm.a(divsf3.o)
 .data          0x0000000000000000        0x0 c:/program files/microchip/xc8/v2.31/avr/bin/../lib/gcc/avr/5.4.0/../../../../avr/lib/avrxmega3\libm.a(divsf3.o)
 .bss           0x0000000000000000        0x0 c:/program files/microchip/xc8/v2.31/avr/bin/../lib/gcc/avr/5.4.0/../../../../avr/lib/avrxmega3\libm.a(divsf3.o)
 .text          0x0000000000000000        0x0 c:/program files/microchip/xc8/v2.31/avr/bin/../lib/gcc/avr/5.4.0/../../../../avr/lib/avrxmega3\libm.a(divsf3x.o)
 .data          0x0000000000000000        0x0 c:/program files/microchip/xc8/v2.31/avr/bin/../lib/gcc/avr/5.4.0/../../../../avr/lib/avrxmega3\libm.a(divsf3x.o)
 .bss           0x0000000000000000        0x0 c:/program files/microchip/xc8/v2.31/avr/bin/../lib/gcc/avr/5.4.0/../../../../avr/lib/avrxmega3\libm.a(divsf3x.o)
 .text          0x0000000000000000        0x0 c:/program files/microchip/xc8/v2.31/avr/bin/../lib/gcc/avr/5.4.0/../../../../avr/lib/avrxmega3\libm.a(floatsisf.o)
 .data          0x0000000000000000        0x0 c:/program files/microchip/xc8/v2.31/avr/bin/../lib/gcc/avr/5.4.0/../../../../avr/lib/avrxmega3\libm.a(floatsisf.o)
 .bss           0x0000000000000000        0x0 c:/program files/microchip/xc8/v2.31/avr/bin/../lib/gcc/avr/5.4.0/../../../../avr/lib/avrxmega3\libm.a(floatsisf.o)
 .text          0x0000000000000000        0x0 c:/program files/microchip/xc8/v2.31/avr/bin/../lib/gcc/avr/5.4.0/../../../../avr/lib/avrxmega3\libm.a(fp_inf.o)
 .data          0x0000000000000000        0x0 c:/program files/microchip/xc8/v2.31/avr/bin/../lib/gcc/avr/5.4.0/../../../../avr/lib/avrxmega3\libm.a(fp_inf.o)
 .bss           0x0000000000000000        0x0 c:/program files/microchip/xc8/v2.31/avr/bin/../lib/gcc/avr/5.4.0/../../../../avr/lib/avrxmega3\libm.a(fp_inf.o)
 .text          0x0000000000000000        0x0 c:/program files/microchip/xc8/v2.31/avr/bin/../lib/gcc/avr/5.4.0/../../../../avr/lib/avrxmega3\libm.a(fp_nan.o)
 .data          0x0000000000000000        0x0 c:/program files/microchip/xc8/v2.31/avr/bin/../lib/gcc/avr/5.4.0/../../../../avr/lib/avrxmega3\libm.a(fp_nan.o)
 .bss           0x0000000000000000        0x0 c:/program files/microchip/xc8/v2.31/avr/bin/../lib/gcc/avr/5.4.0/../../../../avr/lib/avrxmega3\libm.a(fp_nan.o)
 .text          0x0000000000000000        0x0 c:/program files/microchip/xc8/v2.31/avr/bin/../lib/gcc/avr/5.4.0/../../../../avr/lib/avrxmega3\libm.a(fp_pscA.o)
 .data          0x0000000000000000        0x0 c:/program files/microchip/xc8/v2.31/avr/bin/../lib/gcc/avr/5.4.0/../../../../avr/lib/avrxmega3\libm.a(fp_pscA.o)
 .bss           0x0000000000000000        0x0 c:/program files/microchip/xc8/v2.31/avr/bin/../lib/gcc/avr/5.4.0/../../../../avr/lib/avrxmega3\libm.a(fp_pscA.o)
 .text          0x0000000000000000        0x0 c:/program files/microchip/xc8/v2.31/avr/bin/../lib/gcc/avr/5.4.0/../../../../avr/lib/avrxmega3\libm.a(fp_pscB.o)
 .data          0x0000000000000000        0x0 c:/program files/microchip/xc8/v2.31/avr/bin/../lib/gcc/avr/5.4.0/../../../../avr/lib/avrxmega3\libm.a(fp_pscB.o)
 .bss           0x0000000000000000        0x0 c:/program files/microchip/xc8/v2.31/avr/bin/../lib/gcc/avr/5.4.0/../../../../avr/lib/avrxmega3\libm.a(fp_pscB.o)
 .text          0x0000000000000000        0x0 c:/program files/microchip/xc8/v2.31/avr/bin/../lib/gcc/avr/5.4.0/../../../../avr/lib/avrxmega3\libm.a(fp_round.o)
 .data          0x0000000000000000        0x0 c:/program files/microchip/xc8/v2.31/avr/bin/../lib/gcc/avr/5.4.0/../../../../avr/lib/avrxmega3\libm.a(fp_round.o)
 .bss           0x0000000000000000        0x0 c:/program files/microchip/xc8/v2.31/avr/bin/../lib/gcc/avr/5.4.0/../../../../avr/lib/avrxmega3\libm.a(fp_round.o)
 .text          0x0000000000000000        0x0 c:/program files/microchip/xc8/v2.31/avr/bin/../lib/gcc/avr/5.4.0/../../../../avr/lib/avrxmega3\libm.a(fp_split3.o)
 .data          0x0000000000000000        0x0 c:/program files/microchip/xc8/v2.31/avr/bin/../lib/gcc/avr/5.4.0/../../../../avr/lib/avrxmega3\libm.a(fp_split3.o)
 .bss           0x0000000000000000        0x0 c:/program files/microchip/xc8/v2.31/avr/bin/../lib/gcc/avr/5.4.0/../../../../avr/lib/avrxmega3\libm.a(fp_split3.o)
 .text          0x0000000000000000        0x0 c:/program files/microchip/xc8/v2.31/avr/bin/../lib/gcc/avr/5.4.0/../../../../avr/lib/avrxmega3\libm.a(fp_zero.o)
 .data          0x0000000000000000        0x0 c:/program files/microchip/xc8/v2.31/avr/bin/../lib/gcc/avr/5.4.0/../../../../avr/lib/avrxmega3\libm.a(fp_zero.o)
 .bss           0x0000000000000000        0x0 c:/program files/microchip/xc8/v2.31/avr/bin/../lib/gcc/avr/5.4.0/../../../../avr/lib/avrxmega3\libm.a(fp_zero.o)
 .text          0x0000000000000000        0x0 c:/program files/microchip/xc8/v2.31/avr/bin/../lib/gcc/avr/5.4.0/../../../../avr/lib/avrxmega3\libm.a(mulsf3.o)
 .data          0x0000000000000000        0x0 c:/program files/microchip/xc8/v2.31/avr/bin/../lib/gcc/avr/5.4.0/../../../../avr/lib/avrxmega3\libm.a(mulsf3.o)
 .bss           0x0000000000000000        0x0 c:/program files/microchip/xc8/v2.31/avr/bin/../lib/gcc/avr/5.4.0/../../../../avr/lib/avrxmega3\libm.a(mulsf3.o)
 .text          0x0000000000000000        0x0 c:/program files/microchip/xc8/v2.31/avr/bin/../lib/gcc/avr/5.4.0/../../../../avr/lib/avrxmega3\libm.a(mulsf3x.o)
 .data          0x0000000000000000        0x0 c:/program files/microchip/xc8/v2.31/avr/bin/../lib/gcc/avr/5.4.0/../../../../avr/lib/avrxmega3\libm.a(mulsf3x.o)
 .bss           0x0000000000000000        0x0 c:/program files/microchip/xc8/v2.31/avr/bin/../lib/gcc/avr/5.4.0/../../../../avr/lib/avrxmega3\libm.a(mulsf3x.o)
 .text          0x0000000000000000        0x0 c:/program files/microchip/xc8/v2.31/avr/bin/../lib/gcc/avr/5.4.0/avrxmega3\libgcc.a(_exit.o)
 .data          0x0000000000000000        0x0 c:/program files/microchip/xc8/v2.31/avr/bin/../lib/gcc/avr/5.4.0/avrxmega3\libgcc.a(_exit.o)
 .bss           0x0000000000000000        0x0 c:/program files/microchip/xc8/v2.31/avr/bin/../lib/gcc/avr/5.4.0/avrxmega3\libgcc.a(_exit.o)
 .text.libgcc.mul
                0x0000000000000000        0x0 c:/program files/microchip/xc8/v2.31/avr/bin/../lib/gcc/avr/5.4.0/avrxmega3\libgcc.a(_exit.o)
 .text.libgcc.div
                0x0000000000000000        0x0 c:/program files/microchip/xc8/v2.31/avr/bin/../lib/gcc/avr/5.4.0/avrxmega3\libgcc.a(_exit.o)
 .text.libgcc   0x0000000000000000        0x0 c:/program files/microchip/xc8/v2.31/avr/bin/../lib/gcc/avr/5.4.0/avrxmega3\libgcc.a(_exit.o)
 .text.libgcc.prologue
                0x0000000000000000        0x0 c:/program files/microchip/xc8/v2.31/avr/bin/../lib/gcc/avr/5.4.0/avrxmega3\libgcc.a(_exit.o)
 .text.libgcc.builtins
                0x0000000000000000        0x0 c:/program files/microchip/xc8/v2.31/avr/bin/../lib/gcc/avr/5.4.0/avrxmega3\libgcc.a(_exit.o)
 .text.libgcc.fmul
                0x0000000000000000        0x0 c:/program files/microchip/xc8/v2.31/avr/bin/../lib/gcc/avr/5.4.0/avrxmega3\libgcc.a(_exit.o)
 .text.libgcc.fixed
                0x0000000000000000        0x0 c:/program files/microchip/xc8/v2.31/avr/bin/../lib/gcc/avr/5.4.0/avrxmega3\libgcc.a(_exit.o)
 .text          0x0000000000000000        0x0 c:/program files/microchip/xc8/v2.31/avr/bin/../lib/gcc/avr/5.4.0/avrxmega3\libgcc.a(_copy_data.o)
 .data          0x0000000000000000        0x0 c:/program files/microchip/xc8/v2.31/avr/bin/../lib/gcc/avr/5.4.0/avrxmega3\libgcc.a(_copy_data.o)
 .bss           0x0000000000000000        0x0 c:/program files/microchip/xc8/v2.31/avr/bin/../lib/gcc/avr/5.4.0/avrxmega3\libgcc.a(_copy_data.o)
 .text.libgcc.mul
                0x0000000000000000        0x0 c:/program files/microchip/xc8/v2.31/avr/bin/../lib/gcc/avr/5.4.0/avrxmega3\libgcc.a(_copy_data.o)
 .text.libgcc.div
                0x0000000000000000        0x0 c:/program files/microchip/xc8/v2.31/avr/bin/../lib/gcc/avr/5.4.0/avrxmega3\libgcc.a(_copy_data.o)
 .text.libgcc   0x0000000000000000        0x0 c:/program files/microchip/xc8/v2.31/avr/bin/../lib/gcc/avr/5.4.0/avrxmega3\libgcc.a(_copy_data.o)
 .text.libgcc.prologue
                0x0000000000000000        0x0 c:/program files/microchip/xc8/v2.31/avr/bin/../lib/gcc/avr/5.4.0/avrxmega3\libgcc.a(_copy_data.o)
 .text.libgcc.builtins
                0x0000000000000000        0x0 c:/program files/microchip/xc8/v2.31/avr/bin/../lib/gcc/avr/5.4.0/avrxmega3\libgcc.a(_copy_data.o)
 .text.libgcc.fmul
                0x0000000000000000        0x0 c:/program files/microchip/xc8/v2.31/avr/bin/../lib/gcc/avr/5.4.0/avrxmega3\libgcc.a(_copy_data.o)
 .text.libgcc.fixed
                0x0000000000000000        0x0 c:/program files/microchip/xc8/v2.31/avr/bin/../lib/gcc/avr/5.4.0/avrxmega3\libgcc.a(_copy_data.o)
 .text          0x0000000000000000        0x0 c:/program files/microchip/xc8/v2.31/avr/bin/../lib/gcc/avr/5.4.0/avrxmega3\libgcc.a(_prologue.o)
 .data          0x0000000000000000        0x0 c:/program files/microchip/xc8/v2.31/avr/bin/../lib/gcc/avr/5.4.0/avrxmega3\libgcc.a(_prologue.o)
 .bss           0x0000000000000000        0x0 c:/program files/microchip/xc8/v2.31/avr/bin/../lib/gcc/avr/5.4.0/avrxmega3\libgcc.a(_prologue.o)
 .text.libgcc.mul
                0x0000000000000000        0x0 c:/program files/microchip/xc8/v2.31/avr/bin/../lib/gcc/avr/5.4.0/avrxmega3\libgcc.a(_prologue.o)
 .text.libgcc.div
                0x0000000000000000        0x0 c:/program files/microchip/xc8/v2.31/avr/bin/../lib/gcc/avr/5.4.0/avrxmega3\libgcc.a(_prologue.o)
 .text.libgcc   0x0000000000000000        0x0 c:/program files/microchip/xc8/v2.31/avr/bin/../lib/gcc/avr/5.4.0/avrxmega3\libgcc.a(_prologue.o)
 .text.libgcc.builtins
                0x0000000000000000        0x0 c:/program files/microchip/xc8/v2.31/avr/bin/../lib/gcc/avr/5.4.0/avrxmega3\libgcc.a(_prologue.o)
 .text.libgcc.fmul
                0x0000000000000000        0x0 c:/program files/microchip/xc8/v2.31/avr/bin/../lib/gcc/avr/5.4.0/avrxmega3\libgcc.a(_prologue.o)
 .text.libgcc.fixed
                0x0000000000000000        0x0 c:/program files/microchip/xc8/v2.31/avr/bin/../lib/gcc/avr/5.4.0/avrxmega3\libgcc.a(_prologue.o)
 .text          0x0000000000000000        0x0 c:/program files/microchip/xc8/v2.31/avr/bin/../lib/gcc/avr/5.4.0/avrxmega3\libgcc.a(_epilogue.o)
 .data          0x0000000000000000        0x0 c:/program files/microchip/xc8/v2.31/avr/bin/../lib/gcc/avr/5.4.0/avrxmega3\libgcc.a(_epilogue.o)
 .bss           0x0000000000000000        0x0 c:/program files/microchip/xc8/v2.31/avr/bin/../lib/gcc/avr/5.4.0/avrxmega3\libgcc.a(_epilogue.o)
 .text.libgcc.mul
                0x0000000000000000        0x0 c:/program files/microchip/xc8/v2.31/avr/bin/../lib/gcc/avr/5.4.0/avrxmega3\libgcc.a(_epilogue.o)
 .text.libgcc.div
                0x0000000000000000        0x0 c:/program files/microchip/xc8/v2.31/avr/bin/../lib/gcc/avr/5.4.0/avrxmega3\libgcc.a(_epilogue.o)
 .text.libgcc   0x0000000000000000        0x0 c:/program files/microchip/xc8/v2.31/avr/bin/../lib/gcc/avr/5.4.0/avrxmega3\libgcc.a(_epilogue.o)
 .text.libgcc.builtins
                0x0000000000000000        0x0 c:/program files/microchip/xc8/v2.31/avr/bin/../lib/gcc/avr/5.4.0/avrxmega3\libgcc.a(_epilogue.o)
 .text.libgcc.fmul
                0x0000000000000000        0x0 c:/program files/microchip/xc8/v2.31/avr/bin/../lib/gcc/avr/5.4.0/avrxmega3\libgcc.a(_epilogue.o)
 .text.libgcc.fixed
                0x0000000000000000        0x0 c:/program files/microchip/xc8/v2.31/avr/bin/../lib/gcc/avr/5.4.0/avrxmega3\libgcc.a(_epilogue.o)
 .text          0x0000000000000000        0x0 c:/program files/microchip/xc8/v2.31/avr/bin/../lib/gcc/avr/5.4.0/../../../../avr/lib/avrxmega3\libc.a(ftoa_engine.o)
 .data          0x0000000000000000        0x0 c:/program files/microchip/xc8/v2.31/avr/bin/../lib/gcc/avr/5.4.0/../../../../avr/lib/avrxmega3\libc.a(ftoa_engine.o)
 .bss           0x0000000000000000        0x0 c:/program files/microchip/xc8/v2.31/avr/bin/../lib/gcc/avr/5.4.0/../../../../avr/lib/avrxmega3\libc.a(ftoa_engine.o)
 .text          0x0000000000000000        0x0 c:/program files/microchip/xc8/v2.31/avr/bin/../lib/gcc/avr/5.4.0/../../../../avr/lib/avrxmega3\libc.a(strnlen_P.o)
 .data          0x0000000000000000        0x0 c:/program files/microchip/xc8/v2.31/avr/bin/../lib/gcc/avr/5.4.0/../../../../avr/lib/avrxmega3\libc.a(strnlen_P.o)
 .bss           0x0000000000000000        0x0 c:/program files/microchip/xc8/v2.31/avr/bin/../lib/gcc/avr/5.4.0/../../../../avr/lib/avrxmega3\libc.a(strnlen_P.o)
 .text          0x0000000000000000        0x0 c:/program files/microchip/xc8/v2.31/avr/bin/../lib/gcc/avr/5.4.0/../../../../avr/lib/avrxmega3\libc.a(strnlen.o)
 .data          0x0000000000000000        0x0 c:/program files/microchip/xc8/v2.31/avr/bin/../lib/gcc/avr/5.4.0/../../../../avr/lib/avrxmega3\libc.a(strnlen.o)
 .bss           0x0000000000000000        0x0 c:/program files/microchip/xc8/v2.31/avr/bin/../lib/gcc/avr/5.4.0/../../../../avr/lib/avrxmega3\libc.a(strnlen.o)
 .text          0x0000000000000000        0x0 c:/program files/microchip/xc8/v2.31/avr/bin/../lib/gcc/avr/5.4.0/../../../../avr/lib/avrxmega3\libc.a(fputc.o)
 .data          0x0000000000000000        0x0 c:/program files/microchip/xc8/v2.31/avr/bin/../lib/gcc/avr/5.4.0/../../../../avr/lib/avrxmega3\libc.a(fputc.o)
 .bss           0x0000000000000000        0x0 c:/program files/microchip/xc8/v2.31/avr/bin/../lib/gcc/avr/5.4.0/../../../../avr/lib/avrxmega3\libc.a(fputc.o)
 .text          0x0000000000000000        0x0 c:/program files/microchip/xc8/v2.31/avr/bin/../lib/gcc/avr/5.4.0/../../../../avr/lib/avrxmega3\libc.a(iob.o)
 .data          0x0000000000000000        0x0 c:/program files/microchip/xc8/v2.31/avr/bin/../lib/gcc/avr/5.4.0/../../../../avr/lib/avrxmega3\libc.a(iob.o)
 .bss           0x0000000000000000        0x0 c:/program files/microchip/xc8/v2.31/avr/bin/../lib/gcc/avr/5.4.0/../../../../avr/lib/avrxmega3\libc.a(iob.o)
 .text          0x0000000000000000        0x0 c:/program files/microchip/xc8/v2.31/avr/bin/../lib/gcc/avr/5.4.0/../../../../avr/lib/avrxmega3\libc.a(printf.o)
 .data          0x0000000000000000        0x0 c:/program files/microchip/xc8/v2.31/avr/bin/../lib/gcc/avr/5.4.0/../../../../avr/lib/avrxmega3\libc.a(printf.o)
 .bss           0x0000000000000000        0x0 c:/program files/microchip/xc8/v2.31/avr/bin/../lib/gcc/avr/5.4.0/../../../../avr/lib/avrxmega3\libc.a(printf.o)
 .text          0x0000000000000000        0x0 c:/program files/microchip/xc8/v2.31/avr/bin/../lib/gcc/avr/5.4.0/../../../../avr/lib/avrxmega3\libc.a(ultoa_invert.o)
 .data          0x0000000000000000        0x0 c:/program files/microchip/xc8/v2.31/avr/bin/../lib/gcc/avr/5.4.0/../../../../avr/lib/avrxmega3\libc.a(ultoa_invert.o)
 .bss           0x0000000000000000        0x0 c:/program files/microchip/xc8/v2.31/avr/bin/../lib/gcc/avr/5.4.0/../../../../avr/lib/avrxmega3\libc.a(ultoa_invert.o)

Memory Configuration

Name             Origin             Length             Attributes
text             0x0000000000000000 0x0000000000004000 xr
data             0x0000000000803800 0x0000000000000800 rw !x
eeprom           0x0000000000810000 0x0000000000000100 rw !x
fuse             0x0000000000820000 0x000000000000000a rw !x
lock             0x0000000000830000 0x0000000000000400 rw !x
signature        0x0000000000840000 0x0000000000000400 rw !x
user_signatures  0x0000000000850000 0x0000000000000400 rw !x
*default*        0x0000000000000000 0xffffffffffffffff

Linker script and memory map

Address of section .data set to 0x803800
                0x0000000000008000                __RODATA_PM_OFFSET__ = 0x8000
LOAD C:/Users/C62081/.mchp_packs/Microchip/ATtiny_DFP/2.5.116/xc8/avr/lib/avrxmega3/crtattiny1627.o
                0x0000000000000001                __MPLAB_BUILD = 0x1
LOAD c:/program files/microchip/xc8/v2.31/avr/bin/../lib/gcc/avr/5.4.0/../../../../avr/lib/avrxmega3\libprintf_flt.a
LOAD c:/program files/microchip/xc8/v2.31/avr/bin/../lib/gcc/avr/5.4.0/../../../../avr/lib/avrxmega3\libm.a
LOAD build/free/debug/mcc_generated_files/src/usart0.o
LOAD build/free/debug/mcc_generated_files/src/protected_io.o
LOAD build/free/debug/mcc_generated_files/src/adc0.o
LOAD build/free/debug/mcc_generated_files/src/cpuint.o
LOAD build/free/debug/mcc_generated_files/src/evsys.o
LOAD build/free/debug/mcc_generated_files/src/pin_manager.o
LOAD build/free/debug/mcc_generated_files/src/rtc.o
LOAD build/free/debug/mcc_generated_files/src/vref.o
LOAD build/free/debug/mcc_generated_files/device_config.o
LOAD build/free/debug/mcc_generated_files/mcc.o
LOAD build/free/debug/main.o
START GROUP
LOAD c:/program files/microchip/xc8/v2.31/avr/bin/../lib/gcc/avr/5.4.0/../../../../avr/lib/avrxmega3\libm.a
END GROUP
                0x0000000000000001                __MPLAB_DEBUG = 0x1
                0x0000000000000001                __DEBUG = 0x1
START GROUP
LOAD c:/program files/microchip/xc8/v2.31/avr/bin/../lib/gcc/avr/5.4.0/avrxmega3\libgcc.a
LOAD c:/program files/microchip/xc8/v2.31/avr/bin/../lib/gcc/avr/5.4.0/../../../../avr/lib/avrxmega3\libm.a
LOAD c:/program files/microchip/xc8/v2.31/avr/bin/../lib/gcc/avr/5.4.0/../../../../avr/lib/avrxmega3\libc.a
LOAD C:/Users/C62081/.mchp_packs/Microchip/ATtiny_DFP/2.5.116/xc8/avr/lib/avrxmega3\libattiny1627.a
END GROUP
                [0x0000000000000000]                __TEXT_REGION_ORIGIN__ = DEFINED (__TEXT_REGION_ORIGIN__)?__TEXT_REGION_ORIGIN__:0x0
                [0x0000000000803800]                __DATA_REGION_ORIGIN__ = DEFINED (__DATA_REGION_ORIGIN__)?__DATA_REGION_ORIGIN__:0x802000
                [0x0000000000004000]                __TEXT_REGION_LENGTH__ = DEFINED (__TEXT_REGION_LENGTH__)?__TEXT_REGION_LENGTH__:0x100000
                [0x0000000000000800]                __DATA_REGION_LENGTH__ = DEFINED (__DATA_REGION_LENGTH__)?__DATA_REGION_LENGTH__:0xffa0
                [0x0000000000000100]                __EEPROM_REGION_LENGTH__ = DEFINED (__EEPROM_REGION_LENGTH__)?__EEPROM_REGION_LENGTH__:0x10000
                [0x000000000000000a]                __FUSE_REGION_LENGTH__ = DEFINED (__FUSE_REGION_LENGTH__)?__FUSE_REGION_LENGTH__:0x400
                0x0000000000000400                __LOCK_REGION_LENGTH__ = DEFINED (__LOCK_REGION_LENGTH__)?__LOCK_REGION_LENGTH__:0x400
                0x0000000000000400                __SIGNATURE_REGION_LENGTH__ = DEFINED (__SIGNATURE_REGION_LENGTH__)?__SIGNATURE_REGION_LENGTH__:0x400
                0x0000000000000400                __USER_SIGNATURE_REGION_LENGTH__ = DEFINED (__USER_SIGNATURE_REGION_LENGTH__)?__USER_SIGNATURE_REGION_LENGTH__:0x400
                0x0000000000008000                __RODATA_PM_OFFSET__ = DEFINED (__RODATA_PM_OFFSET__)?__RODATA_PM_OFFSET__:0x8000

.hash
 *(.hash)

.dynsym
 *(.dynsym)

.dynstr
 *(.dynstr)

.gnu.version
 *(.gnu.version)

.gnu.version_d
 *(.gnu.version_d)

.gnu.version_r
 *(.gnu.version_r)

.rel.init
 *(.rel.init)

.rela.init
 *(.rela.init)

.rel.text
 *(.rel.text)
 *(.rel.text.*)
 *(.rel.gnu.linkonce.t*)

.rela.text
 *(.rela.text)
 *(.rela.text.*)
 *(.rela.gnu.linkonce.t*)

.rel.fini
 *(.rel.fini)

.rela.fini
 *(.rela.fini)

.rel.rodata
 *(.rel.rodata)
 *(.rel.rodata.*)
 *(.rel.gnu.linkonce.r*)

.rela.rodata
 *(.rela.rodata)
 *(.rela.rodata.*)
 *(.rela.gnu.linkonce.r*)

.rel.data
 *(.rel.data)
 *(.rel.data.*)
 *(.rel.gnu.linkonce.d*)

.rela.data
 *(.rela.data)
 *(.rela.data.*)
 *(.rela.gnu.linkonce.d*)

.rel.ctors
 *(.rel.ctors)

.rela.ctors
 *(.rela.ctors)

.rel.dtors
 *(.rel.dtors)

.rela.dtors
 *(.rela.dtors)

.rel.got
 *(.rel.got)

.rela.got
 *(.rela.got)

.rel.bss
 *(.rel.bss)

.rela.bss
 *(.rela.bss)

.rel.plt
 *(.rel.plt)

.rela.plt
 *(.rela.plt)

.text           0x0000000000000000      0x1d8
 *(.vectors)
 .vectors       0x0000000000000000       0x78 C:/Users/C62081/.mchp_packs/Microchip/ATtiny_DFP/2.5.116/xc8/avr/lib/avrxmega3/crtattiny1627.o
                0x0000000000000000                __vector_default
                0x0000000000000000                __vectors
 *(.vectors)
 *(.progmem.gcc*)
 *(.dinit)
 .dinit         0x0000000000000078       0x11 data_init
                0x000000000000008a                . = ALIGN (0x2)
 *fill*         0x0000000000000089        0x1 
                0x000000000000008a                __trampolines_start = .
 *(.trampolines)
 .trampolines   0x000000000000008a        0x0 linker stubs
 *(.trampolines*)
                0x000000000000008a                __trampolines_end = .
 *libprintf_flt.a:*(.progmem.data)
 *libc.a:*(.progmem.data)
 .progmem.data  0x000000000000008a       0xfa c:/program files/microchip/xc8/v2.31/avr/bin/../lib/gcc/avr/5.4.0/../../../../avr/lib/avrxmega3\libc.a(ftoa_engine.o)
                0x0000000000000184                . = ALIGN (0x2)
 *(.jumptables)
 *(.jumptables*)
 *(.lowtext)
 *(.lowtext*)
                0x0000000000000184                __ctors_start = .
 *(.ctors)
                0x0000000000000184                __ctors_end = .
                0x0000000000000184                __dtors_start = .
 *(.dtors)
                0x0000000000000184                __dtors_end = .
 SORT(*)(.ctors)
 SORT(*)(.dtors)
 *(.init0)
 .init0         0x0000000000000184        0x0 C:/Users/C62081/.mchp_packs/Microchip/ATtiny_DFP/2.5.116/xc8/avr/lib/avrxmega3/crtattiny1627.o
                0x0000000000000184                __init
 *(.init0)
 *(.init1)
 *(.init1)
 *(.init2)
 .init2         0x0000000000000184        0xc C:/Users/C62081/.mchp_packs/Microchip/ATtiny_DFP/2.5.116/xc8/avr/lib/avrxmega3/crtattiny1627.o
 *(.init2)
 *(.init3)
 *(.init3)
 *(.init4)
 .init4         0x0000000000000190       0x3c c:/program files/microchip/xc8/v2.31/avr/bin/../lib/gcc/avr/5.4.0/avrxmega3\libgcc.a(_copy_data.o)
                0x0000000000000190                __do_copy_data
                0x00000000000001be                __do_clear_bss
 *(.init4)
 *(.init5)
 *(.init5)
 *(.init6)
 *(.init6)
 *(.init7)
 *(.init7)
 *(.init8)
 *(.init8)
 *(.init9)
 .init9         0x00000000000001cc        0x8 C:/Users/C62081/.mchp_packs/Microchip/ATtiny_DFP/2.5.116/xc8/avr/lib/avrxmega3/crtattiny1627.o
 *(.init9)
                0x00000000000001d4                . = ALIGN (0x2)
 *(.fini9)
 .fini9         0x00000000000001d4        0x0 c:/program files/microchip/xc8/v2.31/avr/bin/../lib/gcc/avr/5.4.0/avrxmega3\libgcc.a(_exit.o)
                0x00000000000001d4                _exit
                0x00000000000001d4                exit
 *(.fini9)
 *(.fini8)
 *(.fini8)
 *(.fini7)
 *(.fini7)
 *(.fini6)
 *(.fini6)
 *(.fini5)
 *(.fini5)
 *(.fini4)
 *(.fini4)
 *(.fini3)
 *(.fini3)
 *(.fini2)
 *(.fini2)
 *(.fini1)
 *(.fini1)
 *(.fini0)
 .fini0         0x00000000000001d4        0x4 c:/program files/microchip/xc8/v2.31/avr/bin/../lib/gcc/avr/5.4.0/avrxmega3\libgcc.a(_exit.o)
 *(.fini0)
                0x00000000000001d8                _etext = .

.data           0x0000000000803800        0x0 load address 0x00000000000001d8
                [!provide]                        PROVIDE (__data_start, .)
 *(.gnu.linkonce.d*)
                0x0000000000803800                . = ALIGN (0x2)
                0x0000000000803800                _edata = .
                [!provide]                        PROVIDE (__data_end, .)

.bss            0x0000000000803800        0x6
                [!provide]                        PROVIDE (__bss_start, .)
 *(COMMON)
 COMMON         0x0000000000803800        0x6 c:/program files/microchip/xc8/v2.31/avr/bin/../lib/gcc/avr/5.4.0/../../../../avr/lib/avrxmega3\libc.a(iob.o)
                0x0000000000803800                __iob
                [!provide]                        PROVIDE (__bss_end, .)
                0x00000000000001d8                __data_load_start = LOADADDR (.data)
                0x00000000000001d8                __data_load_end = (__data_load_start + SIZEOF (.data))

.noinit         0x0000000000803806        0x0
                [!provide]                        PROVIDE (__noinit_start, .)
 *(.noinit*)
                [!provide]                        PROVIDE (__noinit_end, .)
                0x0000000000803806                _end = .

.eeprom         0x0000000000810000        0x0
 *(.eeprom*)
                0x0000000000810000                __eeprom_end = .

.fuse           0x0000000000820000        0x9
 *(.fuse)
 .fuse          0x0000000000820000        0x9 build/free/debug/mcc_generated_files/device_config.o
                0x0000000000820000                __fuse
 *(.lfuse)
 *(.hfuse)
 *(.efuse)

.lock
 *(.lock*)

.signature
 *(.signature*)

.user_signatures
 *(.user_signatures*)

.stab
 *(.stab)

.stabstr
 *(.stabstr)

.stab.excl
 *(.stab.excl)

.stab.exclstr
 *(.stab.exclstr)

.stab.index
 *(.stab.index)

.stab.indexstr
 *(.stab.indexstr)

.comment        0x0000000000000000       0x5b
 *(.comment)
 .comment       0x0000000000000000       0x2c c:/program files/microchip/xc8/v2.31/avr/bin/../lib/gcc/avr/5.4.0/../../../../avr/lib/avrxmega3\libprintf_flt.a(vfprintf_flt.o)
                                         0x2d (size before relaxing)
 .comment       0x000000000000002c       0x2f build/free/debug/mcc_generated_files/src/usart0.o
                                         0x30 (size before relaxing)
 .comment       0x000000000000005b       0x30 build/free/debug/mcc_generated_files/src/adc0.o
 .comment       0x000000000000005b       0x30 build/free/debug/mcc_generated_files/src/cpuint.o
 .comment       0x000000000000005b       0x30 build/free/debug/mcc_generated_files/src/evsys.o
 .comment       0x000000000000005b       0x30 build/free/debug/mcc_generated_files/src/pin_manager.o
 .comment       0x000000000000005b       0x30 build/free/debug/mcc_generated_files/src/rtc.o
 .comment       0x000000000000005b       0x30 build/free/debug/mcc_generated_files/src/vref.o
 .comment       0x000000000000005b       0x30 build/free/debug/mcc_generated_files/device_config.o
 .comment       0x000000000000005b       0x30 build/free/debug/mcc_generated_files/mcc.o
 .comment       0x000000000000005b       0x30 build/free/debug/main.o
 .comment       0x000000000000005b       0x2d c:/program files/microchip/xc8/v2.31/avr/bin/../lib/gcc/avr/5.4.0/../../../../avr/lib/avrxmega3\libc.a(fputc.o)
 .comment       0x000000000000005b       0x2d c:/program files/microchip/xc8/v2.31/avr/bin/../lib/gcc/avr/5.4.0/../../../../avr/lib/avrxmega3\libc.a(iob.o)
 .comment       0x000000000000005b       0x2d c:/program files/microchip/xc8/v2.31/avr/bin/../lib/gcc/avr/5.4.0/../../../../avr/lib/avrxmega3\libc.a(printf.o)

.note.gnu.build-id
 *(.note.gnu.build-id)

.debug
 *(.debug)

.line
 *(.line)

.debug_srcinfo
 *(.debug_srcinfo)

.debug_sfnames
 *(.debug_sfnames)

.debug_aranges  0x0000000000000000      0x3a8
 *(.debug_aranges)
 .debug_aranges
                0x0000000000000000       0x80 build/free/debug/mcc_generated_files/src/usart0.o
 .debug_aranges
                0x0000000000000080       0x20 build/free/debug/mcc_generated_files/src/protected_io.o
 .debug_aranges
                0x00000000000000a0       0xe0 build/free/debug/mcc_generated_files/src/adc0.o
 .debug_aranges
                0x0000000000000180       0x28 build/free/debug/mcc_generated_files/src/cpuint.o
 .debug_aranges
                0x00000000000001a8       0x20 build/free/debug/mcc_generated_files/src/evsys.o
 .debug_aranges
                0x00000000000001c8       0x68 build/free/debug/mcc_generated_files/src/pin_manager.o
 .debug_aranges
                0x0000000000000230       0xa8 build/free/debug/mcc_generated_files/src/rtc.o
 .debug_aranges
                0x00000000000002d8       0x20 build/free/debug/mcc_generated_files/src/vref.o
 .debug_aranges
                0x00000000000002f8       0x18 build/free/debug/mcc_generated_files/device_config.o
 .debug_aranges
                0x0000000000000310       0x50 build/free/debug/mcc_generated_files/mcc.o
 .debug_aranges
                0x0000000000000360       0x48 build/free/debug/main.o

.debug_pubnames
 *(.debug_pubnames)

.debug_info     0x0000000000000000     0x6873
 *(.debug_info .gnu.linkonce.wi.*)
 .debug_info    0x0000000000000000     0x19bc C:/Users/C62081/.mchp_packs/Microchip/ATtiny_DFP/2.5.116/xc8/avr/lib/avrxmega3/crtattiny1627.o
 .debug_info    0x00000000000019bc      0x787 build/free/debug/mcc_generated_files/src/usart0.o
 .debug_info    0x0000000000002143       0xcd build/free/debug/mcc_generated_files/src/protected_io.o
 .debug_info    0x0000000000002210     0x1226 build/free/debug/mcc_generated_files/src/adc0.o
 .debug_info    0x0000000000003436      0x3d6 build/free/debug/mcc_generated_files/src/cpuint.o
 .debug_info    0x000000000000380c      0x5de build/free/debug/mcc_generated_files/src/evsys.o
 .debug_info    0x0000000000003dea      0x83f build/free/debug/mcc_generated_files/src/pin_manager.o
 .debug_info    0x0000000000004629      0x8b8 build/free/debug/mcc_generated_files/src/rtc.o
 .debug_info    0x0000000000004ee1      0x337 build/free/debug/mcc_generated_files/src/vref.o
 .debug_info    0x0000000000005218      0x854 build/free/debug/mcc_generated_files/device_config.o
 .debug_info    0x0000000000005a6c      0x6a4 build/free/debug/mcc_generated_files/mcc.o
 .debug_info    0x0000000000006110      0x763 build/free/debug/main.o

.debug_abbrev   0x0000000000000000     0x2324
 *(.debug_abbrev)
 .debug_abbrev  0x0000000000000000     0x185e C:/Users/C62081/.mchp_packs/Microchip/ATtiny_DFP/2.5.116/xc8/avr/lib/avrxmega3/crtattiny1627.o
 .debug_abbrev  0x000000000000185e      0x1be build/free/debug/mcc_generated_files/src/usart0.o
 .debug_abbrev  0x0000000000001a1c       0x14 build/free/debug/mcc_generated_files/src/protected_io.o
 .debug_abbrev  0x0000000000001a30      0x1e3 build/free/debug/mcc_generated_files/src/adc0.o
 .debug_abbrev  0x0000000000001c13       0xc0 build/free/debug/mcc_generated_files/src/cpuint.o
 .debug_abbrev  0x0000000000001cd3       0x8c build/free/debug/mcc_generated_files/src/evsys.o
 .debug_abbrev  0x0000000000001d5f      0x10b build/free/debug/mcc_generated_files/src/pin_manager.o
 .debug_abbrev  0x0000000000001e6a      0x164 build/free/debug/mcc_generated_files/src/rtc.o
 .debug_abbrev  0x0000000000001fce       0x7a build/free/debug/mcc_generated_files/src/vref.o
 .debug_abbrev  0x0000000000002048       0x97 build/free/debug/mcc_generated_files/device_config.o
 .debug_abbrev  0x00000000000020df      0x129 build/free/debug/mcc_generated_files/mcc.o
 .debug_abbrev  0x0000000000002208      0x11c build/free/debug/main.o

.debug_line     0x0000000000000000     0x19dd
 *(.debug_line .debug_line.* .debug_line_end)
 .debug_line    0x0000000000000000      0x14b C:/Users/C62081/.mchp_packs/Microchip/ATtiny_DFP/2.5.116/xc8/avr/lib/avrxmega3/crtattiny1627.o
 .debug_line    0x000000000000014b      0x2f6 build/free/debug/mcc_generated_files/src/usart0.o
 .debug_line    0x0000000000000441       0x66 build/free/debug/mcc_generated_files/src/protected_io.o
 .debug_line    0x00000000000004a7      0x4b5 build/free/debug/mcc_generated_files/src/adc0.o
 .debug_line    0x000000000000095c      0x158 build/free/debug/mcc_generated_files/src/cpuint.o
 .debug_line    0x0000000000000ab4      0x197 build/free/debug/mcc_generated_files/src/evsys.o
 .debug_line    0x0000000000000c4b      0x344 build/free/debug/mcc_generated_files/src/pin_manager.o
 .debug_line    0x0000000000000f8f      0x3c4 build/free/debug/mcc_generated_files/src/rtc.o
 .debug_line    0x0000000000001353      0x100 build/free/debug/mcc_generated_files/src/vref.o
 .debug_line    0x0000000000001453       0xdd build/free/debug/mcc_generated_files/device_config.o
 .debug_line    0x0000000000001530      0x23e build/free/debug/mcc_generated_files/mcc.o
 .debug_line    0x000000000000176e      0x26f build/free/debug/main.o

.debug_frame    0x0000000000000000      0xc1c
 *(.debug_frame)
 .debug_frame   0x0000000000000000      0x1b4 build/free/debug/mcc_generated_files/src/usart0.o
 .debug_frame   0x00000000000001b4      0x394 build/free/debug/mcc_generated_files/src/adc0.o
 .debug_frame   0x0000000000000548       0x54 build/free/debug/mcc_generated_files/src/cpuint.o
 .debug_frame   0x000000000000059c       0x34 build/free/debug/mcc_generated_files/src/evsys.o
 .debug_frame   0x00000000000005d0      0x154 build/free/debug/mcc_generated_files/src/pin_manager.o
 .debug_frame   0x0000000000000724      0x2dc build/free/debug/mcc_generated_files/src/rtc.o
 .debug_frame   0x0000000000000a00       0x34 build/free/debug/mcc_generated_files/src/vref.o
 .debug_frame   0x0000000000000a34      0x114 build/free/debug/mcc_generated_files/mcc.o
 .debug_frame   0x0000000000000b48       0xd4 build/free/debug/main.o

.debug_str      0x0000000000000000      0xb93
 *(.debug_str)
 .debug_str     0x0000000000000000      0xb47 C:/Users/C62081/.mchp_packs/Microchip/ATtiny_DFP/2.5.116/xc8/avr/lib/avrxmega3/crtattiny1627.o
 .debug_str     0x0000000000000b47        0x0 build/free/debug/mcc_generated_files/src/usart0.o
 .debug_str     0x0000000000000b47       0x11 build/free/debug/mcc_generated_files/src/adc0.o
 .debug_str     0x0000000000000b58        0x0 build/free/debug/mcc_generated_files/src/cpuint.o
 .debug_str     0x0000000000000b58        0x0 build/free/debug/mcc_generated_files/src/evsys.o
 .debug_str     0x0000000000000b58       0x1c build/free/debug/mcc_generated_files/src/pin_manager.o
 .debug_str     0x0000000000000b74        0x9 build/free/debug/mcc_generated_files/src/rtc.o
 .debug_str     0x0000000000000b7d        0x0 build/free/debug/mcc_generated_files/src/vref.o
 .debug_str     0x0000000000000b7d        0x0 build/free/debug/mcc_generated_files/device_config.o
 .debug_str     0x0000000000000b7d       0x16 build/free/debug/mcc_generated_files/mcc.o
 .debug_str     0x0000000000000b93        0x0 build/free/debug/main.o

.debug_loc
 *(.debug_loc)

.debug_macinfo
 *(.debug_macinfo)

.debug_weaknames
 *(.debug_weaknames)

.debug_funcnames
 *(.debug_funcnames)

.debug_typenames
 *(.debug_typenames)

.debug_varnames
 *(.debug_varnames)

.debug_pubtypes
 *(.debug_pubtypes)

.debug_ranges   0x0000000000000000      0x2e0
 *(.debug_ranges)
 .debug_ranges  0x0000000000000000       0x70 build/free/debug/mcc_generated_files/src/usart0.o
 .debug_ranges  0x0000000000000070       0xd0 build/free/debug/mcc_generated_files/src/adc0.o
 .debug_ranges  0x0000000000000140       0x18 build/free/debug/mcc_generated_files/src/cpuint.o
 .debug_ranges  0x0000000000000158       0x10 build/free/debug/mcc_generated_files/src/evsys.o
 .debug_ranges  0x0000000000000168       0x58 build/free/debug/mcc_generated_files/src/pin_manager.o
 .debug_ranges  0x00000000000001c0       0x98 build/free/debug/mcc_generated_files/src/rtc.o
 .debug_ranges  0x0000000000000258       0x10 build/free/debug/mcc_generated_files/src/vref.o
 .debug_ranges  0x0000000000000268       0x40 build/free/debug/mcc_generated_files/mcc.o
 .debug_ranges  0x00000000000002a8       0x38 build/free/debug/main.o

.debug_macro
 *(.debug_macro)
OUTPUT(dist/free/debug/attiny1627-curiosity-nano-pga-demo-mplab-mcc.X.debug.elf elf32-avr)
LOAD linker stubs
LOAD data_init

.note.gnu.avr.deviceinfo
                0x0000000000000000       0x40
 .note.gnu.avr.deviceinfo
                0x0000000000000000       0x40 C:/Users/C62081/.mchp_packs/Microchip/ATtiny_DFP/2.5.116/xc8/avr/lib/avrxmega3/crtattiny1627.o

.bss.PORTC_SW0_InterruptHandler
                0x0000000000803814        0x2
 .bss.PORTC_SW0_InterruptHandler
                0x0000000000803814        0x2 build/free/debug/mcc_generated_files/src/pin_manager.o

.bss.PORTB_PB3_InterruptHandler
                0x0000000000803816        0x2
 .bss.PORTB_PB3_InterruptHandler
                0x0000000000803816        0x2 build/free/debug/mcc_generated_files/src/pin_manager.o

.bss.PORTB_PB2_InterruptHandler
                0x0000000000803818        0x2
 .bss.PORTB_PB2_InterruptHandler
                0x0000000000803818        0x2 build/free/debug/mcc_generated_files/src/pin_manager.o

.bss.PORTB_PB7_InterruptHandler
                0x000000000080381a        0x2
 .bss.PORTB_PB7_InterruptHandler
                0x000000000080381a        0x2 build/free/debug/mcc_generated_files/src/pin_manager.o

.bss.RTC_OVF_isr_cb
                0x000000000080381c        0x2
 .bss.RTC_OVF_isr_cb
                0x000000000080381c        0x2 build/free/debug/mcc_generated_files/src/rtc.o
                0x000000000080381c                RTC_OVF_isr_cb

.bss.RTC_CMP_isr_cb
                0x000000000080381e        0x2
 .bss.RTC_CMP_isr_cb
                0x000000000080381e        0x2 build/free/debug/mcc_generated_files/src/rtc.o
                0x000000000080381e                RTC_CMP_isr_cb

.bss.RTC_PIT_isr_cb
                0x0000000000803820        0x2
 .bss.RTC_PIT_isr_cb
                0x0000000000803820        0x2 build/free/debug/mcc_generated_files/src/rtc.o
                0x0000000000803820                RTC_PIT_isr_cb

progmem.data    0x00000000000001d8        0x8
 progmem.data   0x00000000000001d8        0x8 c:/program files/microchip/xc8/v2.31/avr/bin/../lib/gcc/avr/5.4.0/../../../../avr/lib/avrxmega3\libprintf_flt.a(vfprintf_flt.o)

.text.avrlibc   0x00000000000001e0      0x6fa
 .text.avrlibc  0x00000000000001e0      0x6fa c:/program files/microchip/xc8/v2.31/avr/bin/../lib/gcc/avr/5.4.0/../../../../avr/lib/avrxmega3\libprintf_flt.a(vfprintf_flt.o)
                0x00000000000001e0                vfprintf

.text.main      0x00000000000008da      0x334
 .text.main     0x00000000000008da      0x334 build/free/debug/main.o
                0x00000000000008da                main

.text.avrlibc   0x0000000000000c0e      0x1b0
 .text.avrlibc  0x0000000000000c0e      0x1b0 c:/program files/microchip/xc8/v2.31/avr/bin/../lib/gcc/avr/5.4.0/../../../../avr/lib/avrxmega3\libc.a(ftoa_engine.o)
                0x0000000000000c0e                __ftoa_engine

.text.PIN_MANAGER_Initialize
                0x0000000000000dbe      0x160
 .text.PIN_MANAGER_Initialize
                0x0000000000000dbe      0x160 build/free/debug/mcc_generated_files/src/pin_manager.o
                0x0000000000000dbe                PIN_MANAGER_Initialize

.text.EVSYS_Initialize
                0x0000000000000f1e       0xf0
 .text.EVSYS_Initialize
                0x0000000000000f1e       0xf0 build/free/debug/mcc_generated_files/src/evsys.o
                0x0000000000000f1e                EVSYS_Initialize

.text.avrlibc.fplib
                0x000000000000100e       0xde
 .text.avrlibc.fplib
                0x000000000000100e       0xde c:/program files/microchip/xc8/v2.31/avr/bin/../lib/gcc/avr/5.4.0/../../../../avr/lib/avrxmega3\libm.a(divsf3x.o)
                0x000000000000100e                __divsf3x
                0x0000000000001036                __divsf3_pse

.text.avrlibc.fplib
                0x00000000000010ec       0xd4
 .text.avrlibc.fplib
                0x00000000000010ec       0xd4 c:/program files/microchip/xc8/v2.31/avr/bin/../lib/gcc/avr/5.4.0/../../../../avr/lib/avrxmega3\libm.a(mulsf3x.o)
                0x00000000000010ec                __mulsf3x
                0x0000000000001112                __mulsf3_pse

.rodata         0x00000000008091c0       0xc1 load address 0x00000000000011c0
 .rodata        0x00000000008091c0       0xc1 build/free/debug/main.o

.text.avrlibc   0x0000000000001282       0xbc
 .text.avrlibc  0x0000000000001282       0xbc c:/program files/microchip/xc8/v2.31/avr/bin/../lib/gcc/avr/5.4.0/../../../../avr/lib/avrxmega3\libc.a(ultoa_invert.o)
                0x0000000000001282                __ultoa_invert

.text.__vector_3
                0x000000000000133e       0xb8
 .text.__vector_3
                0x000000000000133e       0xb8 build/free/debug/mcc_generated_files/src/rtc.o
                0x000000000000133e                __vector_3

.text.PORT_Initialize
                0x00000000000013f6       0xa4
 .text.PORT_Initialize
                0x00000000000013f6       0xa4 build/free/debug/mcc_generated_files/src/pin_manager.o
                0x00000000000013f6                PORT_Initialize

.text.ADC0_Initialize
                0x000000000000149a       0x98
 .text.ADC0_Initialize
                0x000000000000149a       0x98 build/free/debug/mcc_generated_files/src/adc0.o
                0x000000000000149a                ADC0_Initialize

.text.RTC_Initialize
                0x0000000000001532       0x80
 .text.RTC_Initialize
                0x0000000000001532       0x80 build/free/debug/mcc_generated_files/src/rtc.o
                0x0000000000001532                RTC_Initialize

.text.avrlibc.fplib
                0x00000000000015b2       0x7a
 .text.avrlibc.fplib
                0x00000000000015b2       0x7a c:/program files/microchip/xc8/v2.31/avr/bin/../lib/gcc/avr/5.4.0/../../../../avr/lib/avrxmega3\libm.a(floatsisf.o)
                0x00000000000015b2                __floatunsisf
                0x00000000000015b6                __floatsisf

.text.__vector_4
                0x000000000000162c       0x78
 .text.__vector_4
                0x000000000000162c       0x78 build/free/debug/mcc_generated_files/src/rtc.o
                0x000000000000162c                __vector_4

.text.avrlibc   0x00000000000016a4       0x78
 .text.avrlibc  0x00000000000016a4       0x78 c:/program files/microchip/xc8/v2.31/avr/bin/../lib/gcc/avr/5.4.0/../../../../avr/lib/avrxmega3\libc.a(fputc.o)
                0x00000000000016a4                fputc

.text.USART0_Initialize
                0x000000000000171c       0x66
 .text.USART0_Initialize
                0x000000000000171c       0x66 build/free/debug/mcc_generated_files/src/usart0.o
                0x000000000000171c                USART0_Initialize

.text.__vector_21
                0x0000000000001782       0x58
 .text.__vector_21
                0x0000000000001782       0x58 build/free/debug/mcc_generated_files/src/adc0.o
                0x0000000000001782                __vector_21

.text.CLKCTRL_Initialize
                0x00000000000017da       0x4c
 .text.CLKCTRL_Initialize
                0x00000000000017da       0x4c build/free/debug/mcc_generated_files/mcc.o
                0x00000000000017da                CLKCTRL_Initialize

.text.__vector_23
                0x0000000000001826       0x44
 .text.__vector_23
                0x0000000000001826       0x44 build/free/debug/mcc_generated_files/src/adc0.o
                0x0000000000001826                __vector_23

.text.__vector_22
                0x000000000000186a       0x44
 .text.__vector_22
                0x000000000000186a       0x44 build/free/debug/mcc_generated_files/src/adc0.o
                0x000000000000186a                __vector_22

.text.__vector_2
                0x00000000000018ae       0x44
 .text.__vector_2
                0x00000000000018ae       0x44 build/free/debug/mcc_generated_files/mcc.o
                0x00000000000018ae                __vector_2

.text.avrlibc.fplib
                0x00000000000018f2       0x44
 .text.avrlibc.fplib
                0x00000000000018f2       0x44 c:/program files/microchip/xc8/v2.31/avr/bin/../lib/gcc/avr/5.4.0/../../../../avr/lib/avrxmega3\libm.a(fp_split3.o)
                0x00000000000018f2                __fp_split3
                0x0000000000001902                __fp_splitA

.text.SYSTEM_Initialize
                0x0000000000001936       0x38
 .text.SYSTEM_Initialize
                0x0000000000001936       0x38 build/free/debug/mcc_generated_files/mcc.o
                0x0000000000001936                SYSTEM_Initialize

.text.USART0_Write
                0x000000000000196e       0x36
 .text.USART0_Write
                0x000000000000196e       0x36 build/free/debug/mcc_generated_files/src/usart0.o
                0x000000000000196e                USART0_Write

.text.getPGAGain
                0x00000000000019a4       0x36
 .text.getPGAGain
                0x00000000000019a4       0x36 build/free/debug/main.o
                0x00000000000019a4                getPGAGain

.text.enablePGAConnection
                0x00000000000019da       0x34
 .text.enablePGAConnection
                0x00000000000019da       0x34 build/free/debug/main.o
                0x00000000000019da                enablePGAConnection

.text.libgcc.prologue
                0x0000000000001a0e       0x32
 .text.libgcc.prologue
                0x0000000000001a0e       0x32 c:/program files/microchip/xc8/v2.31/avr/bin/../lib/gcc/avr/5.4.0/avrxmega3\libgcc.a(_prologue.o)
                0x0000000000001a0e                __prologue_saves__

.text.libgcc.prologue
                0x0000000000001a40       0x30
 .text.libgcc.prologue
                0x0000000000001a40       0x30 c:/program files/microchip/xc8/v2.31/avr/bin/../lib/gcc/avr/5.4.0/avrxmega3\libgcc.a(_epilogue.o)
                0x0000000000001a40                __epilogue_restores__

.text.ccp_write_io
                0x0000000000001a70       0x2c
 .text.ccp_write_io
                0x0000000000001a70       0x2c build/free/debug/mcc_generated_files/src/cpuint.o

.text.CPUINT_Initialize
                0x0000000000001a9c       0x2c
 .text.CPUINT_Initialize
                0x0000000000001a9c       0x2c build/free/debug/mcc_generated_files/src/cpuint.o
                0x0000000000001a9c                CPUINT_Initialize

.text.ccp_write_io
                0x0000000000001ac8       0x2c
 .text.ccp_write_io
                0x0000000000001ac8       0x2c build/free/debug/mcc_generated_files/mcc.o

.text.avrlibc   0x0000000000001af4       0x2c
 .text.avrlibc  0x0000000000001af4       0x2c c:/program files/microchip/xc8/v2.31/avr/bin/../lib/gcc/avr/5.4.0/../../../../avr/lib/avrxmega3\libc.a(printf.o)
                0x0000000000001af4                printf

.text.BOD_Initialize
                0x0000000000001b20       0x2a
 .text.BOD_Initialize
                0x0000000000001b20       0x2a build/free/debug/mcc_generated_files/mcc.o
                0x0000000000001b20                BOD_Initialize

.text.USART0_printCHAR
                0x0000000000001b4a       0x28
 .text.USART0_printCHAR
                0x0000000000001b4a       0x28 build/free/debug/mcc_generated_files/src/usart0.o
                0x0000000000001b4a                USART0_printCHAR

.text.USART0_IsTxBusy
                0x0000000000001b72       0x28
 .text.USART0_IsTxBusy
                0x0000000000001b72       0x28 build/free/debug/mcc_generated_files/src/usart0.o
                0x0000000000001b72                USART0_IsTxBusy

.text.isPGAConnected
                0x0000000000001b9a       0x28
 .text.isPGAConnected
                0x0000000000001b9a       0x28 build/free/debug/main.o
                0x0000000000001b9a                isPGAConnected

.text.PORTC_SW0_SetInterruptHandler
                0x0000000000001bc2       0x26
 .text.PORTC_SW0_SetInterruptHandler
                0x0000000000001bc2       0x26 build/free/debug/mcc_generated_files/src/pin_manager.o
                0x0000000000001bc2                PORTC_SW0_SetInterruptHandler

.text.PORTB_PB3_SetInterruptHandler
                0x0000000000001be8       0x26
 .text.PORTB_PB3_SetInterruptHandler
                0x0000000000001be8       0x26 build/free/debug/mcc_generated_files/src/pin_manager.o
                0x0000000000001be8                PORTB_PB3_SetInterruptHandler

.text.PORTB_PB2_SetInterruptHandler
                0x0000000000001c0e       0x26
 .text.PORTB_PB2_SetInterruptHandler
                0x0000000000001c0e       0x26 build/free/debug/mcc_generated_files/src/pin_manager.o
                0x0000000000001c0e                PORTB_PB2_SetInterruptHandler

.text.PORTB_PB7_SetInterruptHandler
                0x0000000000001c34       0x26
 .text.PORTB_PB7_SetInterruptHandler
                0x0000000000001c34       0x26 build/free/debug/mcc_generated_files/src/pin_manager.o
                0x0000000000001c34                PORTB_PB7_SetInterruptHandler

.text.VREF_Initialize
                0x0000000000001c5a       0x22
 .text.VREF_Initialize
                0x0000000000001c5a       0x22 build/free/debug/mcc_generated_files/src/vref.o
                0x0000000000001c5a                VREF_Initialize

.text.disablePGAConnection
                0x0000000000001c7c       0x22
 .text.disablePGAConnection
                0x0000000000001c7c       0x22 build/free/debug/main.o
                0x0000000000001c7c                disablePGAConnection

.text.avrlibc.fplib
                0x0000000000001c9e       0x22
 .text.avrlibc.fplib
                0x0000000000001c9e       0x22 c:/program files/microchip/xc8/v2.31/avr/bin/../lib/gcc/avr/5.4.0/../../../../avr/lib/avrxmega3\libm.a(fp_round.o)
                0x0000000000001c9e                __fp_round

.text.ADC0_GetConversionResult
                0x0000000000001cc0       0x20
 .text.ADC0_GetConversionResult
                0x0000000000001cc0       0x20 build/free/debug/mcc_generated_files/src/adc0.o
                0x0000000000001cc0                ADC0_GetConversionResult

.text.SLPCTRL_Initialize
                0x0000000000001ce0       0x1a
 .text.SLPCTRL_Initialize
                0x0000000000001ce0       0x1a build/free/debug/mcc_generated_files/mcc.o
                0x0000000000001ce0                SLPCTRL_Initialize

.text.getADCReferenceSetting
                0x0000000000001cfa       0x18
 .text.getADCReferenceSetting
                0x0000000000001cfa       0x18 build/free/debug/main.o
                0x0000000000001cfa                getADCReferenceSetting

.text.avrlibc   0x0000000000001d12       0x16
 .text.avrlibc  0x0000000000001d12       0x16 c:/program files/microchip/xc8/v2.31/avr/bin/../lib/gcc/avr/5.4.0/../../../../avr/lib/avrxmega3\libc.a(strnlen_P.o)
                0x0000000000001d12                strnlen_P

.text.avrlibc   0x0000000000001d28       0x16
 .text.avrlibc  0x0000000000001d28       0x16 c:/program files/microchip/xc8/v2.31/avr/bin/../lib/gcc/avr/5.4.0/../../../../avr/lib/avrxmega3\libc.a(strnlen.o)
                0x0000000000001d28                strnlen

.text.PORTC_SW0_DefaultInterruptHandler
                0x0000000000001d3e       0x10
 .text.PORTC_SW0_DefaultInterruptHandler
                0x0000000000001d3e       0x10 build/free/debug/mcc_generated_files/src/pin_manager.o
                0x0000000000001d3e                PORTC_SW0_DefaultInterruptHandler

.text.PORTB_PB3_DefaultInterruptHandler
                0x0000000000001d4e       0x10
 .text.PORTB_PB3_DefaultInterruptHandler
                0x0000000000001d4e       0x10 build/free/debug/mcc_generated_files/src/pin_manager.o
                0x0000000000001d4e                PORTB_PB3_DefaultInterruptHandler

.text.PORTB_PB2_DefaultInterruptHandler
                0x0000000000001d5e       0x10
 .text.PORTB_PB2_DefaultInterruptHandler
                0x0000000000001d5e       0x10 build/free/debug/mcc_generated_files/src/pin_manager.o
                0x0000000000001d5e                PORTB_PB2_DefaultInterruptHandler

.text.PORTB_PB7_DefaultInterruptHandler
                0x0000000000001d6e       0x10
 .text.PORTB_PB7_DefaultInterruptHandler
                0x0000000000001d6e       0x10 build/free/debug/mcc_generated_files/src/pin_manager.o
                0x0000000000001d6e                PORTB_PB7_DefaultInterruptHandler

.text.avrlibc.fplib
                0x0000000000001d7e        0xe
 .text.avrlibc.fplib
                0x0000000000001d7e        0xe c:/program files/microchip/xc8/v2.31/avr/bin/../lib/gcc/avr/5.4.0/../../../../avr/lib/avrxmega3\libm.a(fp_pscA.o)
                0x0000000000001d7e                __fp_pscA

.text.avrlibc.fplib
                0x0000000000001d8c        0xe
 .text.avrlibc.fplib
                0x0000000000001d8c        0xe c:/program files/microchip/xc8/v2.31/avr/bin/../lib/gcc/avr/5.4.0/../../../../avr/lib/avrxmega3\libm.a(fp_pscB.o)
                0x0000000000001d8c                __fp_pscB

.text.avrlibc.fplib
                0x0000000000001d9a        0xe
 .text.avrlibc.fplib
                0x0000000000001d9a        0xe c:/program files/microchip/xc8/v2.31/avr/bin/../lib/gcc/avr/5.4.0/../../../../avr/lib/avrxmega3\libm.a(fp_zero.o)
                0x0000000000001d9a                __fp_zero
                0x0000000000001d9c                __fp_szero

.text.avrlibc.fplib
                0x0000000000001da8        0xc
 .text.avrlibc.fplib
                0x0000000000001da8        0xc c:/program files/microchip/xc8/v2.31/avr/bin/../lib/gcc/avr/5.4.0/../../../../avr/lib/avrxmega3\libm.a(fp_inf.o)
                0x0000000000001da8                __fp_inf

.text.protected_write_io
                0x0000000000001db4        0x8
 .text.protected_write_io
                0x0000000000001db4        0x8 build/free/debug/mcc_generated_files/src/protected_io.o
                0x0000000000001db4                protected_write_io

.text.avrlibc.fplib
                0x0000000000001dbc        0x8
 .text.avrlibc.fplib
                0x0000000000001dbc        0x8 c:/program files/microchip/xc8/v2.31/avr/bin/../lib/gcc/avr/5.4.0/../../../../avr/lib/avrxmega3\libm.a(divsf3.o)
                0x0000000000001dbc                __divsf3

.text.avrlibc.fplib
                0x0000000000001dc4        0x8
 .text.avrlibc.fplib
                0x0000000000001dc4        0x8 c:/program files/microchip/xc8/v2.31/avr/bin/../lib/gcc/avr/5.4.0/../../../../avr/lib/avrxmega3\libm.a(mulsf3.o)
                0x0000000000001dc4                __mulsf3

.text.avrlibc.fplib
                0x0000000000001dcc        0x6
 .text.avrlibc.fplib
                0x0000000000001dcc        0x6 c:/program files/microchip/xc8/v2.31/avr/bin/../lib/gcc/avr/5.4.0/../../../../avr/lib/avrxmega3\libm.a(fp_nan.o)
                0x0000000000001dcc                __fp_nan

.text           0x0000000000001dd2        0x4
 .text          0x0000000000001dd2        0x4 C:/Users/C62081/.mchp_packs/Microchip/ATtiny_DFP/2.5.116/xc8/avr/lib/avrxmega3/crtattiny1627.o
                0x0000000000001dd2                __vector_28
                0x0000000000001dd2                __vector_1
                0x0000000000001dd2                __vector_24
                0x0000000000001dd2                __vector_12
                0x0000000000001dd2                __bad_interrupt
                0x0000000000001dd2                __vector_6
                0x0000000000001dd2                __vector_25
                0x0000000000001dd2                __vector_11
                0x0000000000001dd2                __vector_13
                0x0000000000001dd2                __vector_17
                0x0000000000001dd2                __vector_19
                0x0000000000001dd2                __vector_7
                0x0000000000001dd2                __vector_27
                0x0000000000001dd2                __vector_5
                0x0000000000001dd2                __vector_9
                0x0000000000001dd2                __vector_15
                0x0000000000001dd2                __vector_29
                0x0000000000001dd2                __vector_8
                0x0000000000001dd2                __vector_26
                0x0000000000001dd2                __vector_14
                0x0000000000001dd2                __vector_10
                0x0000000000001dd2                __vector_16
                0x0000000000001dd2                __vector_18
                0x0000000000001dd2                __vector_20

.data.USART0_stream
                0x0000000000803806        0xe load address 0x0000000000001dd6
 .data.USART0_stream
                0x0000000000803806        0xe build/free/debug/mcc_generated_files/src/usart0.o
                0x0000000000803806                USART0_stream
